; Function Attrs: mustprogress uwtable
define hidden noundef nonnull align 8 dereferenceable(272) ptr @_ZNK19OpenColorIO_v2_4dev27GradingPrimaryTransformImpl8getValueEv(ptr nocapture noundef nonnull readonly align 8 dereferenceable(200) %this) unnamed_addr #0 align 2 {
entry:
  %m_value.i = getelementptr inbounds i8, ptr %this, i64 184
  %0 = load ptr, ptr %m_value.i, align 8
  %vtable.i = load ptr, ptr %0, align 8
  %vfn.i = getelementptr inbounds i8, ptr %vtable.i, i64 24
  %1 = load ptr, ptr %vfn.i, align 8
  %call2.i = tail call noundef nonnull align 8 dereferenceable(272) ptr %1(ptr noundef nonnull align 8 dereferenceable(392) %0)
  ret ptr %call2.i
}